target datalayout = "e-m:e-p270:32:32-p271:32:32-p272:64:64-i64:64-i128:128-f80:128-n8:16:32:64-S128"
target triple = "x86_64-pc-linux-gnu"

%"class.llvm::InstructionCost" = type <{ i64, i32, [4 x i8] }>
%"struct.(anonymous namespace)::NoTTIImpl" = type { %"class.llvm::TargetTransformInfoImplCRTPBase" }
%"class.llvm::TargetTransformInfoImplCRTPBase" = type { %"class.llvm::TargetTransformInfoImplBase" }
%"class.llvm::TargetTransformInfoImplBase" = type { ptr }
%"class.llvm::TargetTransformInfo::Model" = type { %"class.llvm::TargetTransformInfo::Concept", %"struct.(anonymous namespace)::NoTTIImpl" }
%"class.llvm::TargetTransformInfo::Concept" = type { ptr }
%"class.llvm::StackOffset" = type { i64, i64 }

; Function Attrs: mustprogress nounwind uwtable
define linkonce_odr hidden void @_ZN4llvm15InstructionCostC2El(ptr noundef nonnull align 8 dereferenceable(12) %0, i64 noundef %1) unnamed_addr #1 comdat align 2 {
  %3 = alloca ptr, align 8
  %4 = alloca i64, align 8
  store ptr %0, ptr %3, align 8
  store i64 %1, ptr %4, align 8
  %5 = load ptr, ptr %3, align 8
  %6 = getelementptr inbounds nuw %"class.llvm::InstructionCost", ptr %5, i32 0, i32 0
  %7 = load i64, ptr %4, align 8
  store i64 %7, ptr %6, align 8
  %8 = getelementptr inbounds nuw %"class.llvm::InstructionCost", ptr %5, i32 0, i32 1
  store i32 0, ptr %8, align 8
  ret void
}

; Function Attrs: mustprogress nounwind uwtable
define linkonce_odr hidden noundef zeroext i1 @_ZNK4llvm27TargetTransformInfoImplBase21isLegalAddressingModeEPNS_4TypeEPNS_11GlobalValueElbljPNS_11InstructionEl(ptr noundef nonnull align 8 dereferenceable(8) %0, ptr noundef %1, ptr noundef %2, i64 noundef %3, i1 noundef zeroext %4, i64 noundef %5, i32 noundef %6, ptr noundef %7, i64 noundef %8) #1 comdat align 2 {
  %10 = alloca ptr, align 8
  %11 = alloca ptr, align 8
  %12 = alloca ptr, align 8
  %13 = alloca i64, align 8
  %14 = alloca i8, align 1
  %15 = alloca i64, align 8
  %16 = alloca i32, align 4
  %17 = alloca ptr, align 8
  %18 = alloca i64, align 8
  store ptr %0, ptr %10, align 8
  store ptr %1, ptr %11, align 8
  store ptr %2, ptr %12, align 8
  store i64 %3, ptr %13, align 8
  %19 = zext i1 %4 to i8
  store i8 %19, ptr %14, align 1
  store i64 %5, ptr %15, align 8
  store i32 %6, ptr %16, align 4
  store ptr %7, ptr %17, align 8
  store i64 %8, ptr %18, align 8
  %20 = load ptr, ptr %12, align 8
  %21 = icmp ne ptr %20, null
  br i1 %21, label %33, label %22

22:                                               ; preds = %9
  %23 = load i64, ptr %13, align 8
  %24 = icmp eq i64 %23, 0
  br i1 %24, label %25, label %33

25:                                               ; preds = %22
  %26 = load i64, ptr %15, align 8
  %27 = icmp eq i64 %26, 0
  br i1 %27, label %31, label %28

28:                                               ; preds = %25
  %29 = load i64, ptr %15, align 8
  %30 = icmp eq i64 %29, 1
  br label %31

31:                                               ; preds = %28, %25
  %32 = phi i1 [ true, %25 ], [ %30, %28 ]
  br label %33

33:                                               ; preds = %31, %22, %9
  %34 = phi i1 [ false, %22 ], [ false, %9 ], [ %32, %31 ]
  ret i1 %34
}

; Function Attrs: mustprogress nounwind uwtable
define linkonce_odr hidden noundef i64 @_ZNK4llvm11StackOffset11getScalableEv(ptr noundef nonnull align 8 dereferenceable(16) %0) #1 comdat align 2 {
  %2 = alloca ptr, align 8
  store ptr %0, ptr %2, align 8
  %3 = load ptr, ptr %2, align 8
  %4 = getelementptr inbounds nuw %"class.llvm::StackOffset", ptr %3, i32 0, i32 1
  %5 = load i64, ptr %4, align 8
  ret i64 %5
}

; Function Attrs: mustprogress nounwind uwtable
define linkonce_odr hidden noundef i64 @_ZNK4llvm11StackOffset8getFixedEv(ptr noundef nonnull align 8 dereferenceable(16) %0) #1 comdat align 2 {
  %2 = alloca ptr, align 8
  store ptr %0, ptr %2, align 8
  %3 = load ptr, ptr %2, align 8
  %4 = getelementptr inbounds nuw %"class.llvm::StackOffset", ptr %3, i32 0, i32 0
  %5 = load i64, ptr %4, align 8
  ret i64 %5
}

; Function Attrs: mustprogress nounwind uwtable
define linkonce_odr hidden { i64, i32 } @_ZNK4llvm27TargetTransformInfoImplBase20getScalingFactorCostEPNS_4TypeEPNS_11GlobalValueENS_11StackOffsetEblj(ptr noundef nonnull align 8 dereferenceable(8) %0, ptr noundef %1, ptr noundef %2, i64 %3, i64 %4, i1 noundef zeroext %5, i64 noundef %6, i32 noundef %7) #1 comdat align 2 {
  %9 = alloca %"class.llvm::InstructionCost", align 8
  %10 = alloca %"class.llvm::StackOffset", align 8
  %11 = alloca ptr, align 8
  %12 = alloca ptr, align 8
  %13 = alloca ptr, align 8
  %14 = alloca i8, align 1
  %15 = alloca i64, align 8
  %16 = alloca i32, align 4
  %17 = getelementptr inbounds nuw { i64, i64 }, ptr %10, i32 0, i32 0
  store i64 %3, ptr %17, align 8
  %18 = getelementptr inbounds nuw { i64, i64 }, ptr %10, i32 0, i32 1
  store i64 %4, ptr %18, align 8
  store ptr %0, ptr %11, align 8
  store ptr %1, ptr %12, align 8
  store ptr %2, ptr %13, align 8
  %19 = zext i1 %5 to i8
  store i8 %19, ptr %14, align 1
  store i64 %6, ptr %15, align 8
  store i32 %7, ptr %16, align 4
  %20 = load ptr, ptr %11, align 8
  %21 = load ptr, ptr %12, align 8
  %22 = load ptr, ptr %13, align 8
  %23 = call noundef i64 @_ZNK4llvm11StackOffset8getFixedEv(ptr noundef nonnull align 8 dereferenceable(16) %10)
  %24 = load i8, ptr %14, align 1
  %25 = trunc i8 %24 to i1
  %26 = load i64, ptr %15, align 8
  %27 = load i32, ptr %16, align 4
  %28 = call noundef i64 @_ZNK4llvm11StackOffset11getScalableEv(ptr noundef nonnull align 8 dereferenceable(16) %10)
  %29 = call noundef zeroext i1 @_ZNK4llvm27TargetTransformInfoImplBase21isLegalAddressingModeEPNS_4TypeEPNS_11GlobalValueElbljPNS_11InstructionEl(ptr noundef nonnull align 8 dereferenceable(8) %20, ptr noundef %21, ptr noundef %22, i64 noundef %23, i1 noundef zeroext %25, i64 noundef %26, i32 noundef %27, ptr noundef null, i64 noundef %28)
  br i1 %29, label %30, label %31

30:                                               ; preds = %8
  call void @_ZN4llvm15InstructionCostC2El(ptr noundef nonnull align 8 dereferenceable(12) %9, i64 noundef 0)
  br label %32

31:                                               ; preds = %8
  call void @_ZN4llvm15InstructionCostC2El(ptr noundef nonnull align 8 dereferenceable(12) %9, i64 noundef -1)
  br label %32

32:                                               ; preds = %31, %30
  %33 = load { i64, i32 }, ptr %9, align 8
  ret { i64, i32 } %33
}

; Function Attrs: mustprogress nounwind uwtable
define internal { i64, i32 } @_ZN4llvm19TargetTransformInfo5ModelIN12_GLOBAL__N_19NoTTIImplEE20getScalingFactorCostEPNS_4TypeEPNS_11GlobalValueENS_11StackOffsetEblj(ptr noundef nonnull align 8 dereferenceable(16) %0, ptr noundef %1, ptr noundef %2, i64 %3, i64 %4, i1 noundef zeroext %5, i64 noundef %6, i32 noundef %7) unnamed_addr #1 align 2 {
  %9 = alloca %"class.llvm::InstructionCost", align 8
  %10 = alloca %"class.llvm::StackOffset", align 8
  %11 = alloca ptr, align 8
  %12 = alloca ptr, align 8
  %13 = alloca ptr, align 8
  %14 = alloca i8, align 1
  %15 = alloca i64, align 8
  %16 = alloca i32, align 4
  %17 = alloca %"class.llvm::StackOffset", align 8
  %18 = alloca { i64, i32 }, align 8
  %19 = getelementptr inbounds nuw { i64, i64 }, ptr %10, i32 0, i32 0
  store i64 %3, ptr %19, align 8
  %20 = getelementptr inbounds nuw { i64, i64 }, ptr %10, i32 0, i32 1
  store i64 %4, ptr %20, align 8
  store ptr %0, ptr %11, align 8
  store ptr %1, ptr %12, align 8
  store ptr %2, ptr %13, align 8
  %21 = zext i1 %5 to i8
  store i8 %21, ptr %14, align 1
  store i64 %6, ptr %15, align 8
  store i32 %7, ptr %16, align 4
  %22 = load ptr, ptr %11, align 8
  %23 = getelementptr inbounds nuw %"class.llvm::TargetTransformInfo::Model", ptr %22, i32 0, i32 1
  %24 = load ptr, ptr %12, align 8
  %25 = load ptr, ptr %13, align 8
  call void @llvm.memcpy.p0.p0.i64(ptr align 8 %17, ptr align 8 %10, i64 16, i1 false)
  %26 = load i8, ptr %14, align 1
  %27 = trunc i8 %26 to i1
  %28 = load i64, ptr %15, align 8
  %29 = load i32, ptr %16, align 4
  %30 = getelementptr inbounds nuw { i64, i64 }, ptr %17, i32 0, i32 0
  %31 = load i64, ptr %30, align 8
  %32 = getelementptr inbounds nuw { i64, i64 }, ptr %17, i32 0, i32 1
  %33 = load i64, ptr %32, align 8
  %34 = call { i64, i32 } @_ZNK4llvm27TargetTransformInfoImplBase20getScalingFactorCostEPNS_4TypeEPNS_11GlobalValueENS_11StackOffsetEblj(ptr noundef nonnull align 8 dereferenceable(8) %23, ptr noundef %24, ptr noundef %25, i64 %31, i64 %33, i1 noundef zeroext %27, i64 noundef %28, i32 noundef %29)
  store { i64, i32 } %34, ptr %18, align 8
  call void @llvm.memcpy.p0.p0.i64(ptr align 8 %9, ptr align 8 %18, i64 12, i1 false)
  %35 = load { i64, i32 }, ptr %9, align 8
  ret { i64, i32 } %35
}