; Function Attrs: mustprogress nofree norecurse nosync nounwind willreturn memory(none) uwtable
define internal { i64, i32 } @_ZN4llvm19TargetTransformInfo5ModelIN12_GLOBAL__N_19NoTTIImplEE20getScalingFactorCostEPNS_4TypeEPNS_11GlobalValueENS_11StackOffsetEblj(ptr nocapture nonnull readnone align 8 %0, ptr nocapture readnone %1, ptr noundef readnone %2, i64 %3, i64 %4, i1 zeroext %5, i64 noundef %6, i32 %7) unnamed_addr #7 align 2 {
  %9 = icmp ne ptr %2, null
  %10 = icmp ne i64 %3, 0
  %or.cond.i.not8.i = or i1 %9, %10
  %11 = icmp ugt i64 %6, 1
  %spec.select.i.not.i = or i1 %or.cond.i.not8.i, %11
  %spec.select.i = sext i1 %spec.select.i.not.i to i64
  %.fca.0.insert.i = insertvalue { i64, i32 } poison, i64 %spec.select.i, 0
  %.fca.1.insert.i = insertvalue { i64, i32 } %.fca.0.insert.i, i32 0, 1
  ret { i64, i32 } %.fca.1.insert.i
}